target datalayout = "e-m:e-p270:32:32-p271:32:32-p272:64:64-i64:64-i128:128-f80:128-n8:16:32:64-S128"
target triple = "x86_64-pc-linux-gnu"

%struct.file_buff_tag = type { i32, [8192 x i8], i64 }

; Function Attrs: nounwind uwtable
define internal void @html_output_flush(ptr noundef %0) #0 {
  %2 = alloca ptr, align 8
  store ptr %0, ptr %2, align 8, !tbaa !46
  %3 = load ptr, ptr %2, align 8, !tbaa !46
  %4 = icmp ne ptr %3, null
  br i1 %4, label %5, label %23

5:                                                ; preds = %1
  %6 = load ptr, ptr %2, align 8, !tbaa !46
  %7 = getelementptr inbounds nuw %struct.file_buff_tag, ptr %6, i32 0, i32 2
  %8 = load i64, ptr %7, align 8, !tbaa !57
  %9 = icmp ugt i64 %8, 0
  br i1 %9, label %10, label %23

10:                                               ; preds = %5
  %11 = load ptr, ptr %2, align 8, !tbaa !46
  %12 = getelementptr inbounds nuw %struct.file_buff_tag, ptr %11, i32 0, i32 0
  %13 = load i32, ptr %12, align 8, !tbaa !55
  %14 = load ptr, ptr %2, align 8, !tbaa !46
  %15 = getelementptr inbounds nuw %struct.file_buff_tag, ptr %14, i32 0, i32 1
  %16 = getelementptr inbounds [8192 x i8], ptr %15, i64 0, i64 0
  %17 = load ptr, ptr %2, align 8, !tbaa !46
  %18 = getelementptr inbounds nuw %struct.file_buff_tag, ptr %17, i32 0, i32 2
  %19 = load i64, ptr %18, align 8, !tbaa !57
  %20 = call i64 @cli_writen(i32 noundef %13, ptr noundef %16, i64 noundef %19)
  %21 = load ptr, ptr %2, align 8, !tbaa !46
  %22 = getelementptr inbounds nuw %struct.file_buff_tag, ptr %21, i32 0, i32 2
  store i64 0, ptr %22, align 8, !tbaa !57
  br label %23

23:                                               ; preds = %10, %5, %1
  ret void
}

; Function Attrs: nounwind uwtable
define internal void @html_output_str(ptr noundef %0, ptr noundef %1, i64 noundef %2) #0 {
  %4 = alloca ptr, align 8
  %5 = alloca ptr, align 8
  %6 = alloca i64, align 8
  store ptr %0, ptr %4, align 8, !tbaa !46
  store ptr %1, ptr %5, align 8, !tbaa !8
  store i64 %2, ptr %6, align 8, !tbaa !28
  %7 = load ptr, ptr %4, align 8, !tbaa !46
  %8 = icmp ne ptr %7, null
  br i1 %8, label %9, label %45

9:                                                ; preds = %3
  %10 = load ptr, ptr %4, align 8, !tbaa !46
  %11 = getelementptr inbounds nuw %struct.file_buff_tag, ptr %10, i32 0, i32 2
  %12 = load i64, ptr %11, align 8, !tbaa !57
  %13 = load i64, ptr %6, align 8, !tbaa !28
  %14 = add i64 %12, %13
  %15 = icmp uge i64 %14, 8192
  br i1 %15, label %16, label %18

16:                                               ; preds = %9
  %17 = load ptr, ptr %4, align 8, !tbaa !46
  call void @html_output_flush(ptr noundef %17)
  br label %18

18:                                               ; preds = %16, %9
  %19 = load i64, ptr %6, align 8, !tbaa !28
  %20 = icmp uge i64 %19, 8192
  br i1 %20, label %21, label %29

21:                                               ; preds = %18
  %22 = load ptr, ptr %4, align 8, !tbaa !46
  call void @html_output_flush(ptr noundef %22)
  %23 = load ptr, ptr %4, align 8, !tbaa !46
  %24 = getelementptr inbounds nuw %struct.file_buff_tag, ptr %23, i32 0, i32 0
  %25 = load i32, ptr %24, align 8, !tbaa !55
  %26 = load ptr, ptr %5, align 8, !tbaa !8
  %27 = load i64, ptr %6, align 8, !tbaa !28
  %28 = call i64 @cli_writen(i32 noundef %25, ptr noundef %26, i64 noundef %27)
  br label %44

29:                                               ; preds = %18
  %30 = load ptr, ptr %4, align 8, !tbaa !46
  %31 = getelementptr inbounds nuw %struct.file_buff_tag, ptr %30, i32 0, i32 1
  %32 = getelementptr inbounds [8192 x i8], ptr %31, i64 0, i64 0
  %33 = load ptr, ptr %4, align 8, !tbaa !46
  %34 = getelementptr inbounds nuw %struct.file_buff_tag, ptr %33, i32 0, i32 2
  %35 = load i64, ptr %34, align 8, !tbaa !57
  %36 = getelementptr inbounds nuw i8, ptr %32, i64 %35
  %37 = load ptr, ptr %5, align 8, !tbaa !8
  %38 = load i64, ptr %6, align 8, !tbaa !28
  call void @llvm.memcpy.p0.p0.i64(ptr align 1 %36, ptr align 1 %37, i64 %38, i1 false)
  %39 = load i64, ptr %6, align 8, !tbaa !28
  %40 = load ptr, ptr %4, align 8, !tbaa !46
  %41 = getelementptr inbounds nuw %struct.file_buff_tag, ptr %40, i32 0, i32 2
  %42 = load i64, ptr %41, align 8, !tbaa !57
  %43 = add i64 %42, %39
  store i64 %43, ptr %41, align 8, !tbaa !57
  br label %44

44:                                               ; preds = %29, %21
  br label %45

45:                                               ; preds = %44, %3
  ret void
}