; Function Attrs: nounwind uwtable
define internal fastcc void @html_output_str(ptr noundef %0, ptr noundef %1, i64 noundef %2) unnamed_addr #0 {
  %.not = icmp eq ptr %0, null
  br i1 %.not, label %27, label %4

4:                                                ; preds = %3
  %5 = getelementptr inbounds nuw i8, ptr %0, i64 8200
  %6 = load i64, ptr %5, align 8, !tbaa !36
  %7 = add i64 %6, %2
  %8 = icmp ult i64 %7, 8192
  %.not.i = icmp eq i64 %6, 0
  %or.cond = or i1 %.not.i, %8
  br i1 %or.cond, label %html_output_flush.exit, label %html_output_flush.exit.thread

html_output_flush.exit:                           ; preds = %4
  %9 = icmp ugt i64 %2, 8191
  br i1 %9, label %14, label %21

html_output_flush.exit.thread:                    ; preds = %4
  %10 = load i32, ptr %0, align 8, !tbaa !34
  %11 = getelementptr inbounds nuw i8, ptr %0, i64 4
  %12 = tail call i64 @cli_writen(i32 noundef %10, ptr noundef nonnull %11, i64 noundef %6) #17
  store i64 0, ptr %5, align 8, !tbaa !36
  %13 = icmp ugt i64 %2, 8191
  br i1 %13, label %html_output_flush.exit16, label %21

14:                                               ; preds = %html_output_flush.exit
  %.not.i15 = icmp eq i64 %6, 0
  br i1 %.not.i15, label %html_output_flush.exit16, label %15

15:                                               ; preds = %14
  %16 = load i32, ptr %0, align 8, !tbaa !34
  %17 = getelementptr inbounds nuw i8, ptr %0, i64 4
  %18 = tail call i64 @cli_writen(i32 noundef %16, ptr noundef nonnull %17, i64 noundef %6) #17
  store i64 0, ptr %5, align 8, !tbaa !36
  br label %html_output_flush.exit16

html_output_flush.exit16:                         ; preds = %html_output_flush.exit.thread, %14, %15
  %19 = load i32, ptr %0, align 8, !tbaa !34
  %20 = tail call i64 @cli_writen(i32 noundef %19, ptr noundef %1, i64 noundef %2) #17
  br label %27

21:                                               ; preds = %html_output_flush.exit.thread, %html_output_flush.exit
  %22 = phi i64 [ 0, %html_output_flush.exit.thread ], [ %6, %html_output_flush.exit ]
  %23 = getelementptr inbounds nuw i8, ptr %0, i64 4
  %24 = getelementptr inbounds nuw i8, ptr %23, i64 %22
  tail call void @llvm.memcpy.p0.p0.i64(ptr nonnull align 1 %24, ptr align 1 %1, i64 %2, i1 false)
  %25 = load i64, ptr %5, align 8, !tbaa !36
  %26 = add i64 %25, %2
  store i64 %26, ptr %5, align 8, !tbaa !36
  br label %27

27:                                               ; preds = %html_output_flush.exit16, %21, %3
  ret void
}